target datalayout = "e-m:e-p270:32:32-p271:32:32-p272:64:64-i64:64-i128:128-f80:128-n8:16:32:64-S128"
target triple = "x86_64-pc-linux-gnu"

%struct.mi_memid_s = type { %union.anon, i8, i8, i8, i32 }
%union.anon = type { %struct.mi_memid_os_info }
%struct.mi_memid_os_info = type { ptr, i64 }

@.str.4 = private unnamed_addr constant [34 x i8] c"failed to reserve %zu KiB memory\0A\00", align 1
@.str.5 = private unnamed_addr constant [27 x i8] c"reserved %zu KiB memory%s\0A\00", align 1
@.str.6 = private unnamed_addr constant [21 x i8] c" (in large os pages)\00", align 1
@.str.7 = private unnamed_addr constant [1 x i8] zeroinitializer, align 1

; Function Attrs: inlinehint nounwind uwtable
define internal i64 @_mi_divide_up(i64 noundef %0, i64 noundef %1) #4 {
  %3 = alloca i64, align 8
  %4 = alloca i64, align 8
  store i64 %0, ptr %3, align 8, !tbaa !15
  store i64 %1, ptr %4, align 8, !tbaa !15
  %5 = load i64, ptr %4, align 8, !tbaa !15
  %6 = icmp eq i64 %5, 0
  br i1 %6, label %7, label %9

7:                                                ; preds = %2
  %8 = load i64, ptr %3, align 8, !tbaa !15
  br label %16

9:                                                ; preds = %2
  %10 = load i64, ptr %3, align 8, !tbaa !15
  %11 = load i64, ptr %4, align 8, !tbaa !15
  %12 = add i64 %10, %11
  %13 = sub i64 %12, 1
  %14 = load i64, ptr %4, align 8, !tbaa !15
  %15 = udiv i64 %13, %14
  br label %16

16:                                               ; preds = %9, %7
  %17 = phi i64 [ %8, %7 ], [ %15, %9 ]
  ret i64 %17
}

; Function Attrs: inlinehint nounwind uwtable
define internal i64 @_mi_align_up(i64 noundef %0, i64 noundef %1) #4 {
  %3 = alloca i64, align 8
  %4 = alloca i64, align 8
  %5 = alloca i64, align 8
  %6 = alloca i64, align 8
  %7 = alloca i32, align 4
  store i64 %0, ptr %4, align 8, !tbaa !15
  store i64 %1, ptr %5, align 8, !tbaa !15
  call void @llvm.lifetime.start.p0(i64 8, ptr %6) #13
  %8 = load i64, ptr %5, align 8, !tbaa !15
  %9 = sub i64 %8, 1
  store i64 %9, ptr %6, align 8, !tbaa !15
  %10 = load i64, ptr %5, align 8, !tbaa !15
  %11 = load i64, ptr %6, align 8, !tbaa !15
  %12 = and i64 %10, %11
  %13 = icmp eq i64 %12, 0
  br i1 %13, label %14, label %21

14:                                               ; preds = %2
  %15 = load i64, ptr %4, align 8, !tbaa !15
  %16 = load i64, ptr %6, align 8, !tbaa !15
  %17 = add i64 %15, %16
  %18 = load i64, ptr %6, align 8, !tbaa !15
  %19 = xor i64 %18, -1
  %20 = and i64 %17, %19
  store i64 %20, ptr %3, align 8
  store i32 1, ptr %7, align 4
  br label %29

21:                                               ; preds = %2
  %22 = load i64, ptr %4, align 8, !tbaa !15
  %23 = load i64, ptr %6, align 8, !tbaa !15
  %24 = add i64 %22, %23
  %25 = load i64, ptr %5, align 8, !tbaa !15
  %26 = udiv i64 %24, %25
  %27 = load i64, ptr %5, align 8, !tbaa !15
  %28 = mul i64 %26, %27
  store i64 %28, ptr %3, align 8
  store i32 1, ptr %7, align 4
  br label %29

29:                                               ; preds = %21, %14
  call void @llvm.lifetime.end.p0(i64 8, ptr %6) #13
  %30 = load i64, ptr %3, align 8
  ret i64 %30
}

; Function Attrs: nounwind uwtable
define hidden i32 @_mi_arena_id_none() #0 {
  ret i32 0
}

; Function Attrs: nounwind uwtable
define hidden i32 @mi_reserve_os_memory_ex(i64 noundef %0, i1 noundef zeroext %1, i1 noundef zeroext %2, i1 noundef zeroext %3, ptr noundef %4) #0 {
  %6 = alloca i32, align 4
  %7 = alloca i64, align 8
  %8 = alloca i8, align 1
  %9 = alloca i8, align 1
  %10 = alloca i8, align 1
  %11 = alloca ptr, align 8
  %12 = alloca %struct.mi_memid_s, align 8
  %13 = alloca ptr, align 8
  %14 = alloca i32, align 4
  %15 = alloca i8, align 1
  store i64 %0, ptr %7, align 8, !tbaa !15
  %16 = zext i1 %1 to i8
  store i8 %16, ptr %8, align 1, !tbaa !21
  %17 = zext i1 %2 to i8
  store i8 %17, ptr %9, align 1, !tbaa !21
  %18 = zext i1 %3 to i8
  store i8 %18, ptr %10, align 1, !tbaa !21
  store ptr %4, ptr %11, align 8, !tbaa !69
  %19 = load ptr, ptr %11, align 8, !tbaa !69
  %20 = icmp ne ptr %19, null
  br i1 %20, label %21, label %24

21:                                               ; preds = %5
  %22 = call i32 @_mi_arena_id_none() #12
  %23 = load ptr, ptr %11, align 8, !tbaa !69
  store i32 %22, ptr %23, align 4, !tbaa !52
  br label %24

24:                                               ; preds = %21, %5
  %25 = load i64, ptr %7, align 8, !tbaa !15
  %26 = call i64 @_mi_align_up(i64 noundef %25, i64 noundef 4194304) #12
  store i64 %26, ptr %7, align 8, !tbaa !15
  call void @llvm.lifetime.start.p0(i64 24, ptr %12) #13
  call void @llvm.lifetime.start.p0(i64 8, ptr %13) #13
  %27 = load i64, ptr %7, align 8, !tbaa !15
  %28 = load i8, ptr %8, align 1, !tbaa !21, !range !22, !noundef !23
  %29 = trunc i8 %28 to i1
  %30 = load i8, ptr %9, align 1, !tbaa !21, !range !22, !noundef !23
  %31 = trunc i8 %30 to i1
  %32 = call ptr @_mi_os_alloc_aligned(i64 noundef %27, i64 noundef 4194304, i1 noundef zeroext %29, i1 noundef zeroext %31, ptr noundef %12) #12
  store ptr %32, ptr %13, align 8, !tbaa !53
  %33 = load ptr, ptr %13, align 8, !tbaa !53
  %34 = icmp eq ptr %33, null
  br i1 %34, label %35, label %36

35:                                               ; preds = %24
  store i32 12, ptr %6, align 4
  store i32 1, ptr %14, align 4
  br label %63

36:                                               ; preds = %24
  call void @llvm.lifetime.start.p0(i64 1, ptr %15) #13
  %37 = getelementptr inbounds nuw %struct.mi_memid_s, ptr %12, i32 0, i32 1
  %38 = load i8, ptr %37, align 8, !tbaa !86, !range !22, !noundef !23
  %39 = trunc i8 %38 to i1
  %40 = zext i1 %39 to i8
  store i8 %40, ptr %15, align 1, !tbaa !21
  %41 = load ptr, ptr %13, align 8, !tbaa !53
  %42 = load i64, ptr %7, align 8, !tbaa !15
  %43 = load i8, ptr %15, align 1, !tbaa !21, !range !22, !noundef !23
  %44 = trunc i8 %43 to i1
  %45 = load i8, ptr %10, align 1, !tbaa !21, !range !22, !noundef !23
  %46 = trunc i8 %45 to i1
  %47 = load ptr, ptr %11, align 8, !tbaa !69
  %48 = call zeroext i1 @mi_manage_os_memory_ex2(ptr noundef %41, i64 noundef %42, i1 noundef zeroext %44, i32 noundef -1, i1 noundef zeroext %46, ptr noundef byval(%struct.mi_memid_s) align 8 %12, ptr noundef %47) #12
  br i1 %48, label %56, label %49

49:                                               ; preds = %36
  %50 = load ptr, ptr %13, align 8, !tbaa !53
  %51 = load i64, ptr %7, align 8, !tbaa !15
  %52 = load i8, ptr %8, align 1, !tbaa !21, !range !22, !noundef !23
  %53 = trunc i8 %52 to i1
  call void @_mi_os_free_ex(ptr noundef %50, i64 noundef %51, i1 noundef zeroext %53, ptr noundef byval(%struct.mi_memid_s) align 8 %12) #12
  %54 = load i64, ptr %7, align 8, !tbaa !15
  %55 = call i64 @_mi_divide_up(i64 noundef %54, i64 noundef 1024) #12
  call void (ptr, ...) @_mi_verbose_message(ptr noundef @.str.4, i64 noundef %55) #12
  store i32 12, ptr %6, align 4
  store i32 1, ptr %14, align 4
  br label %62

56:                                               ; preds = %36
  %57 = load i64, ptr %7, align 8, !tbaa !15
  %58 = call i64 @_mi_divide_up(i64 noundef %57, i64 noundef 1024) #12
  %59 = load i8, ptr %15, align 1, !tbaa !21, !range !22, !noundef !23
  %60 = trunc i8 %59 to i1
  %61 = select i1 %60, ptr @.str.6, ptr @.str.7
  call void (ptr, ...) @_mi_verbose_message(ptr noundef @.str.5, i64 noundef %58, ptr noundef %61) #12
  store i32 0, ptr %6, align 4
  store i32 1, ptr %14, align 4
  br label %62

62:                                               ; preds = %56, %49
  call void @llvm.lifetime.end.p0(i64 1, ptr %15) #13
  br label %63

63:                                               ; preds = %62, %35
  call void @llvm.lifetime.end.p0(i64 8, ptr %13) #13
  call void @llvm.lifetime.end.p0(i64 24, ptr %12) #13
  %64 = load i32, ptr %6, align 4
  ret i32 %64
}