; Function Attrs: nounwind uwtable
define hidden range(i32 0, 13) i32 @mi_reserve_os_memory_ex(i64 noundef %0, i1 noundef zeroext %1, i1 noundef zeroext %2, i1 noundef zeroext %3, ptr noundef captures(address_is_null) %4) local_unnamed_addr #0 {
  %6 = alloca %struct.mi_memid_s, align 8
  %.not = icmp eq ptr %4, null
  br i1 %.not, label %8, label %7

7:                                                ; preds = %5
  store i32 0, ptr %4, align 4, !tbaa !47
  br label %8

8:                                                ; preds = %7, %5
  %9 = add i64 %0, 4194303
  %10 = and i64 %9, -4194304
  call void @llvm.lifetime.start.p0(i64 24, ptr nonnull %6) #21
  %11 = call ptr @_mi_os_alloc_aligned(i64 noundef %10, i64 noundef 4194304, i1 noundef zeroext %1, i1 noundef zeroext %2, ptr noundef nonnull %6) #20
  %12 = icmp eq ptr %11, null
  br i1 %12, label %23, label %13

13:                                               ; preds = %8
  %14 = getelementptr inbounds nuw i8, ptr %6, i64 16
  %15 = load i8, ptr %14, align 8, !tbaa !76, !range !26, !noundef !27
  %16 = trunc nuw i8 %15 to i1
  %17 = call fastcc zeroext i1 @mi_manage_os_memory_ex2(ptr noundef nonnull %11, i64 noundef %10, i1 noundef zeroext %16, i32 noundef -1, i1 noundef zeroext %3, ptr noundef nonnull byval(%struct.mi_memid_s) align 8 %6, ptr noundef %4) #19
  br i1 %17, label %20, label %18

18:                                               ; preds = %13
  call void @_mi_os_free_ex(ptr noundef nonnull %11, i64 noundef %10, i1 noundef zeroext %1, ptr noundef nonnull byval(%struct.mi_memid_s) align 8 %6) #20
  %19 = lshr exact i64 %10, 10
  call void (ptr, ...) @_mi_verbose_message(ptr noundef nonnull @.str.4, i64 noundef %19) #20
  br label %23

20:                                               ; preds = %13
  %21 = lshr exact i64 %10, 10
  %22 = select i1 %16, ptr @.str.6, ptr @.str.7
  call void (ptr, ...) @_mi_verbose_message(ptr noundef nonnull @.str.5, i64 noundef %21, ptr noundef nonnull %22) #20
  br label %23

23:                                               ; preds = %18, %20, %8
  %.0 = phi i32 [ 12, %8 ], [ 0, %20 ], [ 12, %18 ]
  call void @llvm.lifetime.end.p0(i64 24, ptr nonnull %6) #21
  ret i32 %.0
}